; Function Attrs: nounwind uwtable
define internal range(i32 -1, 1) i32 @H5P__peek_cb(ptr readnone captures(none) %0, ptr readnone captures(none) %1, ptr noundef readonly captures(none) %2, ptr noundef readonly captures(none) %3) #0 {
  %5 = load i8, ptr @H5P_init_g, align 1, !tbaa !3, !range !7, !noundef !8
  %6 = trunc nuw i8 %5 to i1
  %7 = load i8, ptr @H5_libterm_g, align 1, !range !7
  %8 = trunc nuw i8 %7 to i1
  %9 = xor i1 %8, true
  %10 = select i1 %6, i1 true, i1 %9
  br i1 %10, label %11, label %23, !prof !9

11:                                               ; preds = %4
  %12 = getelementptr inbounds nuw i8, ptr %2, i64 8
  %13 = load i64, ptr %12, align 8, !tbaa !73
  %14 = icmp eq i64 %13, 0
  br i1 %14, label %15, label %19

15:                                               ; preds = %11
  %16 = load i64, ptr @H5E_PLIST_g, align 8, !tbaa !10
  %17 = load i64, ptr @H5E_BADVALUE_g, align 8, !tbaa !10
  %18 = tail call i32 (ptr, ptr, i32, i64, i64, ptr, ...) @H5E_printf_stack(ptr noundef nonnull @.str.7, ptr noundef nonnull @__func__.H5P__peek_cb, i32 noundef 4627, i64 noundef %16, i64 noundef %17, ptr noundef nonnull @.str.49) #14
  br label %23

19:                                               ; preds = %11
  %20 = load ptr, ptr %3, align 8, !tbaa !95
  %21 = getelementptr inbounds nuw i8, ptr %2, i64 16
  %22 = load ptr, ptr %21, align 8, !tbaa !72
  tail call void @llvm.memcpy.p0.p0.i64(ptr align 1 %20, ptr align 1 %22, i64 %13, i1 false)
  br label %23

23:                                               ; preds = %15, %19, %4
  %.0 = phi i32 [ -1, %15 ], [ 0, %19 ], [ 0, %4 ]
  ret i32 %.0
}